(dp0
S'dfMC_HLT_L0Heff'
p1
ccopy_reg
_reconstructor
p2
(cpandas.core.frame
DataFrame
p3
c__builtin__
object
p4
Ntp5
Rp6
(dp7
S'_metadata'
p8
(lp9
sS'_typ'
p10
S'dataframe'
p11
sS'_data'
p12
g2
(cpandas.core.internals
BlockManager
p13
g4
Ntp14
Rp15
((lp16
cpandas.core.index
_new_Index
p17
(cpandas.core.index
Index
p18
(dp19
S'data'
p20
cnumpy.core.multiarray
_reconstruct
p21
(cnumpy
ndarray
p22
(I0
tp23
S'b'
p24
tp25
Rp26
(I1
(I4
tp27
cnumpy
dtype
p28
(S'O8'
p29
I0
I1
tp30
Rp31
(I3
S'|'
p32
NNNI-1
I-1
I63
tp33
bI00
(lp34
S'Binsy-PT_min'
p35
aS'HLT-Eff'
p36
aS'HLT-Eff-Err'
p37
aS'Binsx-Year'
p38
atp39
bsS'name'
p40
Nstp41
Rp42
ag17
(cpandas.core.index
Int64Index
p43
(dp44
g20
g21
(g22
(I0
tp45
g24
tp46
Rp47
(I1
(I6
tp48
g28
(S'i8'
p49
I0
I1
tp50
Rp51
(I3
S'<'
p52
NNNI-1
I-1
I0
tp53
bI00
S'\x00\x00\x00\x00\x00\x00\x00\x00\x01\x00\x00\x00\x00\x00\x00\x00\x02\x00\x00\x00\x00\x00\x00\x00\x03\x00\x00\x00\x00\x00\x00\x00\x04\x00\x00\x00\x00\x00\x00\x00\x05\x00\x00\x00\x00\x00\x00\x00'
p54
tp55
bsg40
Nstp56
Rp57
a(lp58
g21
(g22
(I0
tp59
g24
tp60
Rp61
(I1
(I1
I6
tp62
g31
I00
(lp63
(lp64
cnumpy.core.multiarray
scalar
p65
(g28
(S'f4'
p66
I0
I1
tp67
Rp68
(I3
S'<'
p69
NNNI-1
I-1
I0
tp70
bS'p\xd9\x80C'
p71
tp72
Rp73
ag65
(g68
S'\x9c\rFD'
p74
tp75
Rp76
aa(lp77
g65
(g68
S'\x9c\rFD'
p78
tp79
Rp80
ag65
(g68
S'\xdc\xa3\x94D'
p81
tp82
Rp83
aa(lp84
g65
(g68
S'\xdc\xa3\x94D'
p85
tp86
Rp87
ag65
(g68
S'B\x19\xd3D'
p88
tp89
Rp90
aa(lp91
g65
(g68
S'B\x19\xd3D'
p92
tp93
Rp94
ag65
(g68
S'\xf6\x06\x08E'
p95
tp96
Rp97
aa(lp98
g65
(g68
S'\xf6\x06\x08E'
p99
tp100
Rp101
ag65
(g68
S'\x98\xeb2E'
p102
tp103
Rp104
aa(lp105
g65
(g68
S'\x98\xeb2E'
p106
tp107
Rp108
ag65
(g68
S'fk\xefE'
p109
tp110
Rp111
aatp112
bag21
(g22
(I0
tp113
g24
tp114
Rp115
(I1
(I2
I6
tp116
g28
(S'f8'
p117
I0
I1
tp118
Rp119
(I3
S'<'
p120
NNNI-1
I-1
I0
tp121
bI00
S'\x00\x00\x00\xe0\x89\x9d\xe6?\x00\x00\x00 \rA\xe8?\x00\x00\x00`\x83\x08\xea?\x00\x00\x00\xa0\x185\xec?\x00\x00\x00\xe0\x08\x14\xed?\x00\x00\x00\xa0\xf7J\xed?\xaaF*[\x84d\x8a?"\x1d|\xb1\x1f\x08\x8d?P\xa0\x9c\xbf&}\x8b?\x1b\x01\x1f\x1cp|\x8c?5\x01\xcc10\x81\x8b?d\xa6t|F\x8b\x8a?'
p122
tp123
bag21
(g22
(I0
tp124
g24
tp125
Rp126
(I1
(I1
I6
tp127
g31
I00
(lp128
(lp129
I10
aI13
aaFnan
aFnan
aFnan
aFnan
aFnan
atp130
ba(lp131
g17
(g18
(dp132
g20
g21
(g22
(I0
tp133
g24
tp134
Rp135
(I1
(I1
tp136
g31
I00
(lp137
g35
atp138
bsg40
Nstp139
Rp140
ag17
(g18
(dp141
g20
g21
(g22
(I0
tp142
g24
tp143
Rp144
(I1
(I2
tp145
g31
I00
(lp146
g36
ag37
atp147
bsg40
Nstp148
Rp149
ag17
(g18
(dp150
g20
g21
(g22
(I0
tp151
g24
tp152
Rp153
(I1
(I1
tp154
g31
I00
(lp155
g38
atp156
bsg40
Nstp157
Rp158
a(dp159
S'0.14.1'
p160
(dp161
S'axes'
p162
g16
sS'blocks'
p163
(lp164
(dp165
S'mgr_locs'
p166
c__builtin__
slice
p167
(I0
I1
I1
tp168
Rp169
sS'values'
p170
g61
sa(dp171
g166
g167
(I1
I3
I1
tp172
Rp173
sg170
g115
sa(dp174
g166
g167
(I3
I4
I1
tp175
Rp176
sg170
g126
sasstp177
bsbsS'dfMC_HLT_L0TISeff'
p178
g2
(g3
g4
Ntp179
Rp180
(dp181
g8
g9
sg10
g11
sg12
g2
(g13
g4
Ntp182
Rp183
((lp184
g17
(g18
(dp185
g20
g21
(g22
(I0
tp186
g24
tp187
Rp188
(I1
(I4
tp189
g31
I00
(lp190
g35
ag36
ag37
ag38
atp191
bsg40
Nstp192
Rp193
ag17
(g43
(dp194
g20
g21
(g22
(I0
tp195
g24
tp196
Rp197
(I1
(I6
tp198
g51
I00
S'\x00\x00\x00\x00\x00\x00\x00\x00\x01\x00\x00\x00\x00\x00\x00\x00\x02\x00\x00\x00\x00\x00\x00\x00\x03\x00\x00\x00\x00\x00\x00\x00\x04\x00\x00\x00\x00\x00\x00\x00\x05\x00\x00\x00\x00\x00\x00\x00'
p199
tp200
bsg40
Nstp201
Rp202
a(lp203
g21
(g22
(I0
tp204
g24
tp205
Rp206
(I1
(I1
I6
tp207
g31
I00
(lp208
(lp209
g65
(g68
S'(vzC'
p210
tp211
Rp212
ag65
(g68
S'\x88"\x0fD'
p213
tp214
Rp215
aa(lp216
g65
(g68
S'\x88"\x0fD'
p217
tp218
Rp219
ag65
(g68
S'\x88jND'
p220
tp221
Rp222
aa(lp223
g65
(g68
S'\x88jND'
p224
tp225
Rp226
ag65
(g68
S'\x11y\x88D'
p227
tp228
Rp229
aa(lp230
g65
(g68
S'\x11y\x88D'
p231
tp232
Rp233
ag65
(g68
S'\xa1\xda\xb3D'
p234
tp235
Rp236
aa(lp237
g65
(g68
S'\xa1\xda\xb3D'
p238
tp239
Rp240
ag65
(g68
S'\xef\\\xf7D'
p241
tp242
Rp243
aa(lp244
g65
(g68
S'\xef\\\xf7D'
p245
tp246
Rp247
ag65
(g68
S'fk\xefE'
p248
tp249
Rp250
aatp251
bag21
(g22
(I0
tp252
g24
tp253
Rp254
(I1
(I2
I6
tp255
g119
I00
S'\x00\x00\x00\xa0\xf0.\xdf?\x00\x00\x00`N\xc5\xe0?\x00\x00\x00`Ed\xe3?\x00\x00\x00\xc0\xca\xd5\xe6?\x00\x00\x00\xa0\x9c\xa2\xea?\x00\x00\x00 \xb4\xad\xec?$-r\x87N\xfb}?\x9f\x85\xa0s_!\x7f?\x85\xeeK"\x94\x10\x81?b&\xb7\xd4K\xd2\x81?\x81T\xfd\xe5\x97\xf6\x80?\xa0\x84\xdft\xb2l~?'
p256
tp257
bag21
(g22
(I0
tp258
g24
tp259
Rp260
(I1
(I1
I6
tp261
g31
I00
(lp262
(lp263
I10
aI13
aaFnan
aFnan
aFnan
aFnan
aFnan
atp264
ba(lp265
g17
(g18
(dp266
g20
g21
(g22
(I0
tp267
g24
tp268
Rp269
(I1
(I1
tp270
g31
I00
(lp271
g35
atp272
bsg40
Nstp273
Rp274
ag17
(g18
(dp275
g20
g21
(g22
(I0
tp276
g24
tp277
Rp278
(I1
(I2
tp279
g31
I00
(lp280
g36
ag37
atp281
bsg40
Nstp282
Rp283
ag17
(g18
(dp284
g20
g21
(g22
(I0
tp285
g24
tp286
Rp287
(I1
(I1
tp288
g31
I00
(lp289
g38
atp290
bsg40
Nstp291
Rp292
a(dp293
g160
(dp294
g162
g184
sg163
(lp295
(dp296
g166
g167
(I0
I1
I1
tp297
Rp298
sg170
g206
sa(dp299
g166
g167
(I1
I3
I1
tp300
Rp301
sg170
g254
sa(dp302
g166
g167
(I3
I4
I1
tp303
Rp304
sg170
g260
sasstp305
bsbsS'dfMC_HLT_L0Eeff'
p306
g2
(g3
g4
Ntp307
Rp308
(dp309
g8
g9
sg10
g11
sg12
g2
(g13
g4
Ntp310
Rp311
((lp312
g17
(g18
(dp313
g20
g21
(g22
(I0
tp314
g24
tp315
Rp316
(I1
(I4
tp317
g31
I00
(lp318
g35
ag36
ag37
ag38
atp319
bsg40
Nstp320
Rp321
ag17
(g43
(dp322
g20
g21
(g22
(I0
tp323
g24
tp324
Rp325
(I1
(I6
tp326
g51
I00
S'\x00\x00\x00\x00\x00\x00\x00\x00\x01\x00\x00\x00\x00\x00\x00\x00\x02\x00\x00\x00\x00\x00\x00\x00\x03\x00\x00\x00\x00\x00\x00\x00\x04\x00\x00\x00\x00\x00\x00\x00\x05\x00\x00\x00\x00\x00\x00\x00'
p327
tp328
bsg40
Nstp329
Rp330
a(lp331
g21
(g22
(I0
tp332
g24
tp333
Rp334
(I1
(I1
I6
tp335
g31
I00
(lp336
(lp337
g65
(g68
S'(vzC'
p338
tp339
Rp340
ag65
(g68
S'\x93O\nD'
p341
tp342
Rp343
aa(lp344
g65
(g68
S'\x93O\nD'
p345
tp346
Rp347
ag65
(g68
S'g\xb0DD'
p348
tp349
Rp350
aa(lp351
g65
(g68
S'g\xb0DD'
p352
tp353
Rp354
ag65
(g68
S'\xc1"\x87D'
p355
tp356
Rp357
aa(lp358
g65
(g68
S'\xc1"\x87D'
p359
tp360
Rp361
ag65
(g68
S'\x02\xb2\xb4D'
p362
tp363
Rp364
aa(lp365
g65
(g68
S'\x02\xb2\xb4D'
p366
tp367
Rp368
ag65
(g68
S'\xdf\xaa\xffD'
p369
tp370
Rp371
aa(lp372
g65
(g68
S'\xdf\xaa\xffD'
p373
tp374
Rp375
ag65
(g68
S'fk\xefE'
p376
tp377
Rp378
aatp379
bag21
(g22
(I0
tp380
g24
tp381
Rp382
(I1
(I2
I6
tp383
g119
I00
S'\x00\x00\x00\x00+\xc0\xe6?\x00\x00\x00@8:\xe8?\x00\x00\x00\xc05?\xe9?\x00\x00\x00\xe0n\xc1\xea?\x00\x00\x00\xe0\xdb\xd7\xec?\x00\x00\x00`k\xad\xed?\x8c\xcd\x13\x02\xeb\xd0\x80?!\x17\x7f\xf0\xed\xa8\x80?\x99\xb3\x921\x04j\x80?\x07\xf8\x88\xaf \x8c\x80?\xf1\x12\xa4\x95\xb5\xd4{?J\xfa\xe0\xfd\xe1wz?'
p384
tp385
bag21
(g22
(I0
tp386
g24
tp387
Rp388
(I1
(I1
I6
tp389
g31
I00
(lp390
(lp391
I10
aI13
aaFnan
aFnan
aFnan
aFnan
aFnan
atp392
ba(lp393
g17
(g18
(dp394
g20
g21
(g22
(I0
tp395
g24
tp396
Rp397
(I1
(I1
tp398
g31
I00
(lp399
g35
atp400
bsg40
Nstp401
Rp402
ag17
(g18
(dp403
g20
g21
(g22
(I0
tp404
g24
tp405
Rp406
(I1
(I2
tp407
g31
I00
(lp408
g36
ag37
atp409
bsg40
Nstp410
Rp411
ag17
(g18
(dp412
g20
g21
(g22
(I0
tp413
g24
tp414
Rp415
(I1
(I1
tp416
g31
I00
(lp417
g38
atp418
bsg40
Nstp419
Rp420
a(dp421
g160
(dp422
g162
g312
sg163
(lp423
(dp424
g166
g167
(I0
I1
I1
tp425
Rp426
sg170
g334
sa(dp427
g166
g167
(I1
I3
I1
tp428
Rp429
sg170
g382
sa(dp430
g166
g167
(I3
I4
I1
tp431
Rp432
sg170
g388
sasstp433
bsbs.